; Function Attrs: mustprogress nounwind uwtable
define dso_local void @_ZNSt3__114collate_bynameIwED0Ev(ptr noundef nonnull align 8 dereferenceable(24) initializes((0, 8)) %0) unnamed_addr #0 align 2 personality ptr @__gxx_personality_v0 {
  store ptr getelementptr inbounds nuw inrange(-16, 48) (i8, ptr @_ZTVNSt3__114collate_bynameIwEE, i64 16), ptr %0, align 8, !tbaa !23
  %2 = getelementptr inbounds nuw i8, ptr %0, i64 16
  %3 = load ptr, ptr %2, align 8, !tbaa !378
  tail call void @freelocale(ptr noundef %3) #45
  tail call void @_ZNSt3__114__shared_countD2Ev(ptr noundef nonnull align 8 dereferenceable(24) %0) #45
  tail call void @_ZdlPvm(ptr noundef nonnull %0, i64 noundef 24) #46
  ret void
}